; ModuleID = 'source-C-CXX/6/1189.cpp'
source_filename = "source-C-CXX/6/1189.cpp"
target datalayout = "e-m:e-p270:32:32-p271:32:32-p272:64:64-i64:64-f80:128-n8:16:32:64-S128"
target triple = "x86_64-pc-linux-gnu"

%"class.std::ios_base::Init" = type { i8 }
%"class.std::basic_istream" = type { i32 (...)**, i64, %"class.std::basic_ios" }
%"class.std::basic_ios" = type { %"class.std::ios_base", %"class.std::basic_ostream"*, i8, i8, %"class.std::basic_streambuf"*, %"class.std::ctype"*, %"class.std::num_put"*, %"class.std::num_get"* }
%"class.std::ios_base" = type { i32 (...)**, i64, i64, i32, i32, i32, %"struct.std::ios_base::_Callback_list"*, %"struct.std::ios_base::_Words", [8 x %"struct.std::ios_base::_Words"], i32, %"struct.std::ios_base::_Words"*, %"class.std::locale" }
%"struct.std::ios_base::_Callback_list" = type { %"struct.std::ios_base::_Callback_list"*, void (i32, %"class.std::ios_base"*, i32)*, i32, i32 }
%"struct.std::ios_base::_Words" = type { i8*, i64 }
%"class.std::locale" = type { %"class.std::locale::_Impl"* }
%"class.std::locale::_Impl" = type { i32, %"class.std::locale::facet"**, i64, %"class.std::locale::facet"**, i8** }
%"class.std::locale::facet" = type <{ i32 (...)**, i32, [4 x i8] }>
%"class.std::basic_ostream" = type { i32 (...)**, %"class.std::basic_ios" }
%"class.std::basic_streambuf" = type { i32 (...)**, i8*, i8*, i8*, i8*, i8*, i8*, %"class.std::locale" }
%"class.std::ctype" = type <{ %"class.std::locale::facet.base", [4 x i8], %struct.__locale_struct*, i8, [7 x i8], i32*, i32*, i16*, i8, [256 x i8], [256 x i8], i8, [6 x i8] }>
%"class.std::locale::facet.base" = type <{ i32 (...)**, i32 }>
%struct.__locale_struct = type { [13 x %struct.__locale_data*], i16*, i32*, i32*, [13 x i8*] }
%struct.__locale_data = type opaque
%"class.std::num_put" = type { %"class.std::locale::facet.base", [4 x i8] }
%"class.std::num_get" = type { %"class.std::locale::facet.base", [4 x i8] }

@_ZStL8__ioinit = internal global %"class.std::ios_base::Init" zeroinitializer, align 1
@__dso_handle = external hidden global i8
@_ZSt3cin = external global %"class.std::basic_istream", align 8
@_ZSt4cout = external global %"class.std::basic_ostream", align 8
@llvm.global_ctors = appending global [1 x { i32, void ()*, i8* }] [{ i32, void ()*, i8* } { i32 65535, void ()* @_GLOBAL__sub_I_1189.cpp, i8* null }]

declare void @_ZNSt8ios_base4InitC1Ev(%"class.std::ios_base::Init"* nonnull align 1 dereferenceable(1)) unnamed_addr #0

; Function Attrs: nounwind
declare void @_ZNSt8ios_base4InitD1Ev(%"class.std::ios_base::Init"* nonnull align 1 dereferenceable(1)) unnamed_addr #1

; Function Attrs: nofree nounwind
declare i32 @__cxa_atexit(void (i8*)*, i8*, i8*) local_unnamed_addr #2

; Function Attrs: mustprogress norecurse sspstrong uwtable
define dso_local i32 @main() local_unnamed_addr #3 {
  %1 = alloca [270 x i8], align 16
  %2 = alloca [70 x i8], align 16
  %3 = alloca [70 x i8], align 16
  %4 = getelementptr inbounds [270 x i8], [270 x i8]* %1, i64 0, i64 0
  call void @llvm.lifetime.start.p0i8(i64 270, i8* nonnull %4) #8
  %5 = getelementptr inbounds [70 x i8], [70 x i8]* %2, i64 0, i64 0
  call void @llvm.lifetime.start.p0i8(i64 70, i8* nonnull %5) #8
  %6 = getelementptr inbounds [70 x i8], [70 x i8]* %3, i64 0, i64 0
  call void @llvm.lifetime.start.p0i8(i64 70, i8* nonnull %6) #8
  call void @_ZSt17__istream_extractRSiPcl(%"class.std::basic_istream"* nonnull align 8 dereferenceable(16) @_ZSt3cin, i8* nonnull %4, i64 270)
  call void @_ZSt17__istream_extractRSiPcl(%"class.std::basic_istream"* nonnull align 8 dereferenceable(16) @_ZSt3cin, i8* nonnull %5, i64 70)
  call void @_ZSt17__istream_extractRSiPcl(%"class.std::basic_istream"* nonnull align 8 dereferenceable(16) @_ZSt3cin, i8* nonnull %6, i64 70)
  %7 = call i8* @strstr(i8* noundef nonnull %4, i8* noundef nonnull %5) #9
  %8 = icmp eq i8* %7, null
  %9 = load i8, i8* %6, align 16
  %10 = icmp eq i8 %9, 0
  %11 = select i1 %8, i1 true, i1 %10
  br i1 %11, label %21, label %12

12:                                               ; preds = %0, %12
  %13 = phi i64 [ %17, %12 ], [ 0, %0 ]
  %14 = phi i8 [ %19, %12 ], [ %9, %0 ]
  %15 = phi i8* [ %16, %12 ], [ %7, %0 ]
  %16 = getelementptr inbounds i8, i8* %15, i64 1
  store i8 %14, i8* %15, align 1, !tbaa !5
  %17 = add nuw nsw i64 %13, 1
  %18 = getelementptr inbounds [70 x i8], [70 x i8]* %3, i64 0, i64 %17
  %19 = load i8, i8* %18, align 1, !tbaa !5
  %20 = icmp eq i8 %19, 0
  br i1 %20, label %21, label %12, !llvm.loop !8

21:                                               ; preds = %12, %0
  %22 = call i64 @strlen(i8* noundef nonnull dereferenceable(1) %4) #8
  %23 = call nonnull align 8 dereferenceable(8) %"class.std::basic_ostream"* @_ZSt16__ostream_insertIcSt11char_traitsIcEERSt13basic_ostreamIT_T0_ES6_PKS3_l(%"class.std::basic_ostream"* nonnull align 8 dereferenceable(8) @_ZSt4cout, i8* nonnull %4, i64 %22)
  %24 = load i8*, i8** bitcast (%"class.std::basic_ostream"* @_ZSt4cout to i8**), align 8, !tbaa !10
  %25 = getelementptr i8, i8* %24, i64 -24
  %26 = bitcast i8* %25 to i64*
  %27 = load i64, i64* %26, align 8
  %28 = add nsw i64 %27, 240
  %29 = getelementptr inbounds i8, i8* bitcast (%"class.std::basic_ostream"* @_ZSt4cout to i8*), i64 %28
  %30 = bitcast i8* %29 to %"class.std::ctype"**
  %31 = load %"class.std::ctype"*, %"class.std::ctype"** %30, align 8, !tbaa !12
  %32 = icmp eq %"class.std::ctype"* %31, null
  br i1 %32, label %33, label %34

33:                                               ; preds = %21
  call void @_ZSt16__throw_bad_castv() #10
  unreachable

34:                                               ; preds = %21
  %35 = getelementptr inbounds %"class.std::ctype", %"class.std::ctype"* %31, i64 0, i32 8
  %36 = load i8, i8* %35, align 8, !tbaa !16
  %37 = icmp eq i8 %36, 0
  br i1 %37, label %41, label %38

38:                                               ; preds = %34
  %39 = getelementptr inbounds %"class.std::ctype", %"class.std::ctype"* %31, i64 0, i32 9, i64 10
  %40 = load i8, i8* %39, align 1, !tbaa !5
  br label %47

41:                                               ; preds = %34
  call void @_ZNKSt5ctypeIcE13_M_widen_initEv(%"class.std::ctype"* nonnull align 8 dereferenceable(570) %31)
  %42 = bitcast %"class.std::ctype"* %31 to i8 (%"class.std::ctype"*, i8)***
  %43 = load i8 (%"class.std::ctype"*, i8)**, i8 (%"class.std::ctype"*, i8)*** %42, align 8, !tbaa !10
  %44 = getelementptr inbounds i8 (%"class.std::ctype"*, i8)*, i8 (%"class.std::ctype"*, i8)** %43, i64 6
  %45 = load i8 (%"class.std::ctype"*, i8)*, i8 (%"class.std::ctype"*, i8)** %44, align 8
  %46 = call signext i8 %45(%"class.std::ctype"* nonnull align 8 dereferenceable(570) %31, i8 signext 10)
  br label %47

47:                                               ; preds = %38, %41
  %48 = phi i8 [ %40, %38 ], [ %46, %41 ]
  %49 = call nonnull align 8 dereferenceable(8) %"class.std::basic_ostream"* @_ZNSo3putEc(%"class.std::basic_ostream"* nonnull align 8 dereferenceable(8) @_ZSt4cout, i8 signext %48)
  %50 = call nonnull align 8 dereferenceable(8) %"class.std::basic_ostream"* @_ZNSo5flushEv(%"class.std::basic_ostream"* nonnull align 8 dereferenceable(8) %49)
  call void @llvm.lifetime.end.p0i8(i64 70, i8* nonnull %6) #8
  call void @llvm.lifetime.end.p0i8(i64 70, i8* nonnull %5) #8
  call void @llvm.lifetime.end.p0i8(i64 270, i8* nonnull %4) #8
  ret i32 0
}

; Function Attrs: argmemonly mustprogress nofree nosync nounwind willreturn
declare void @llvm.lifetime.start.p0i8(i64 immarg, i8* nocapture) #4

; Function Attrs: argmemonly mustprogress nofree nounwind readonly willreturn
declare i8* @strstr(i8*, i8* nocapture) local_unnamed_addr #5

; Function Attrs: argmemonly mustprogress nofree nosync nounwind willreturn
declare void @llvm.lifetime.end.p0i8(i64 immarg, i8* nocapture) #4

declare void @_ZSt17__istream_extractRSiPcl(%"class.std::basic_istream"* nonnull align 8 dereferenceable(16), i8*, i64) local_unnamed_addr #0

declare nonnull align 8 dereferenceable(8) %"class.std::basic_ostream"* @_ZSt16__ostream_insertIcSt11char_traitsIcEERSt13basic_ostreamIT_T0_ES6_PKS3_l(%"class.std::basic_ostream"* nonnull align 8 dereferenceable(8), i8*, i64) local_unnamed_addr #0

; Function Attrs: argmemonly mustprogress nofree nounwind readonly willreturn
declare i64 @strlen(i8* nocapture) local_unnamed_addr #5

declare nonnull align 8 dereferenceable(8) %"class.std::basic_ostream"* @_ZNSo3putEc(%"class.std::basic_ostream"* nonnull align 8 dereferenceable(8), i8 signext) local_unnamed_addr #0

declare nonnull align 8 dereferenceable(8) %"class.std::basic_ostream"* @_ZNSo5flushEv(%"class.std::basic_ostream"* nonnull align 8 dereferenceable(8)) local_unnamed_addr #0

; Function Attrs: noreturn
declare void @_ZSt16__throw_bad_castv() local_unnamed_addr #6

declare void @_ZNKSt5ctypeIcE13_M_widen_initEv(%"class.std::ctype"* nonnull align 8 dereferenceable(570)) local_unnamed_addr #0

; Function Attrs: sspstrong uwtable
define internal void @_GLOBAL__sub_I_1189.cpp() #7 section ".text.startup" {
  tail call void @_ZNSt8ios_base4InitC1Ev(%"class.std::ios_base::Init"* nonnull align 1 dereferenceable(1) @_ZStL8__ioinit)
  %1 = tail call i32 @__cxa_atexit(void (i8*)* bitcast (void (%"class.std::ios_base::Init"*)* @_ZNSt8ios_base4InitD1Ev to void (i8*)*), i8* getelementptr inbounds (%"class.std::ios_base::Init", %"class.std::ios_base::Init"* @_ZStL8__ioinit, i64 0, i32 0), i8* nonnull @__dso_handle) #8
  ret void
}


!llvm.module.flags = !{!0, !1, !2, !3}
!llvm.ident = !{!4}

!0 = !{i32 1, !"wchar_size", i32 4}
!1 = !{i32 7, !"PIC Level", i32 2}
!2 = !{i32 7, !"PIE Level", i32 2}
!3 = !{i32 7, !"uwtable", i32 1}
!4 = !{!"clang version 13.0.0"}
!5 = !{!6, !6, i64 0}
!6 = !{!"omnipotent char", !7, i64 0}
!7 = !{!"Simple C++ TBAA"}
!8 = distinct !{!8, !9}
!9 = !{!"llvm.loop.mustprogress"}
!10 = !{!11, !11, i64 0}
!11 = !{!"vtable pointer", !7, i64 0}
!12 = !{!13, !14, i64 240}
!13 = !{!"_ZTSSt9basic_iosIcSt11char_traitsIcEE", !14, i64 216, !6, i64 224, !15, i64 225, !14, i64 232, !14, i64 240, !14, i64 248, !14, i64 256}
!14 = !{!"any pointer", !6, i64 0}
!15 = !{!"bool", !6, i64 0}
!16 = !{!17, !6, i64 56}
!17 = !{!"_ZTSSt5ctypeIcE", !14, i64 16, !15, i64 24, !14, i64 32, !14, i64 40, !14, i64 48, !6, i64 56, !6, i64 57, !6, i64 313, !6, i64 569}
